; Function Attrs: mustprogress uwtable
define i64 @_ZN7openvdb5v11_02io17getLibraryVersionERSt8ios_base(ptr noundef nonnull align 8 dereferenceable(216) %is) local_unnamed_addr #6 personality ptr @__gxx_personality_v0 {
entry:
  %0 = load atomic i8, ptr @_ZGVZN7openvdb5v11_02io12_GLOBAL__N_113GetSteamStateEvE12sStreamState acquire, align 8
  %guard.uninitialized.i = icmp eq i8 %0, 0
  br i1 %guard.uninitialized.i, label %init.check.i, label %_ZN7openvdb5v11_02io12_GLOBAL__N_113GetSteamStateEv.exit, !prof !8

init.check.i:                                     ; preds = %entry
  %1 = tail call i32 @__cxa_guard_acquire(ptr nonnull @_ZGVZN7openvdb5v11_02io12_GLOBAL__N_113GetSteamStateEvE12sStreamState) #25
  %tobool.not.i = icmp eq i32 %1, 0
  br i1 %tobool.not.i, label %_ZN7openvdb5v11_02io12_GLOBAL__N_113GetSteamStateEv.exit, label %init.i

init.i:                                           ; preds = %init.check.i
  invoke fastcc void @_ZN7openvdb5v11_02io12_GLOBAL__N_111StreamStateC2Ev()
          to label %invoke.cont.i unwind label %lpad.i

invoke.cont.i:                                    ; preds = %init.i
  %2 = tail call i32 @__cxa_atexit(ptr nonnull @_ZN7openvdb5v11_02io12_GLOBAL__N_111StreamStateD2Ev, ptr nonnull @_ZZN7openvdb5v11_02io12_GLOBAL__N_113GetSteamStateEvE12sStreamState, ptr nonnull @__dso_handle) #25
  tail call void @__cxa_guard_release(ptr nonnull @_ZGVZN7openvdb5v11_02io12_GLOBAL__N_113GetSteamStateEvE12sStreamState) #25
  br label %_ZN7openvdb5v11_02io12_GLOBAL__N_113GetSteamStateEv.exit

common.resume:                                    ; preds = %lpad.i6, %lpad.i
  %common.resume.op = phi { ptr, i32 } [ %3, %lpad.i ], [ %11, %lpad.i6 ]
  tail call void @__cxa_guard_abort(ptr nonnull @_ZGVZN7openvdb5v11_02io12_GLOBAL__N_113GetSteamStateEvE12sStreamState) #25
  resume { ptr, i32 } %common.resume.op

lpad.i:                                           ; preds = %init.i
  %3 = landingpad { ptr, i32 }
          cleanup
  br label %common.resume

_ZN7openvdb5v11_02io12_GLOBAL__N_113GetSteamStateEv.exit: ; preds = %entry, %init.check.i, %invoke.cont.i
  %4 = load i32, ptr getelementptr inbounds (%"struct.openvdb::v11_0::io::(anonymous namespace)::StreamState", ptr @_ZZN7openvdb5v11_02io12_GLOBAL__N_113GetSteamStateEvE12sStreamState, i64 0, i32 2), align 4
  %_M_word_size.i = getelementptr inbounds i8, ptr %is, i64 192
  %5 = load i32, ptr %_M_word_size.i, align 8
  %cmp.i = icmp ugt i32 %5, %4
  br i1 %cmp.i, label %cond.true.i, label %cond.false.i

cond.true.i:                                      ; preds = %_ZN7openvdb5v11_02io12_GLOBAL__N_113GetSteamStateEv.exit
  %_M_word.i = getelementptr inbounds i8, ptr %is, i64 200
  %6 = load ptr, ptr %_M_word.i, align 8
  %idxprom.i = sext i32 %4 to i64
  %arrayidx.i = getelementptr inbounds %"struct.std::ios_base::_Words", ptr %6, i64 %idxprom.i
  br label %_ZNSt8ios_base5iwordEi.exit

cond.false.i:                                     ; preds = %_ZN7openvdb5v11_02io12_GLOBAL__N_113GetSteamStateEv.exit
  %call.i = tail call noundef nonnull align 8 dereferenceable(16) ptr @_ZNSt8ios_base13_M_grow_wordsEib(ptr noundef nonnull align 8 dereferenceable(216) %is, i32 noundef %4, i1 noundef zeroext true)
  br label %_ZNSt8ios_base5iwordEi.exit

_ZNSt8ios_base5iwordEi.exit:                      ; preds = %cond.true.i, %cond.false.i
  %cond-lvalue.i = phi ptr [ %arrayidx.i, %cond.true.i ], [ %call.i, %cond.false.i ]
  %_M_iword.i = getelementptr inbounds i8, ptr %cond-lvalue.i, i64 8
  %7 = load i64, ptr %_M_iword.i, align 8
  %8 = load atomic i8, ptr @_ZGVZN7openvdb5v11_02io12_GLOBAL__N_113GetSteamStateEvE12sStreamState acquire, align 8
  %guard.uninitialized.i2 = icmp eq i8 %8, 0
  br i1 %guard.uninitialized.i2, label %init.check.i3, label %_ZN7openvdb5v11_02io12_GLOBAL__N_113GetSteamStateEv.exit8, !prof !8

init.check.i3:                                    ; preds = %_ZNSt8ios_base5iwordEi.exit
  %9 = tail call i32 @__cxa_guard_acquire(ptr nonnull @_ZGVZN7openvdb5v11_02io12_GLOBAL__N_113GetSteamStateEvE12sStreamState) #25
  %tobool.not.i4 = icmp eq i32 %9, 0
  br i1 %tobool.not.i4, label %_ZN7openvdb5v11_02io12_GLOBAL__N_113GetSteamStateEv.exit8, label %init.i5

init.i5:                                          ; preds = %init.check.i3
  invoke fastcc void @_ZN7openvdb5v11_02io12_GLOBAL__N_111StreamStateC2Ev()
          to label %invoke.cont.i7 unwind label %lpad.i6

invoke.cont.i7:                                   ; preds = %init.i5
  %10 = tail call i32 @__cxa_atexit(ptr nonnull @_ZN7openvdb5v11_02io12_GLOBAL__N_111StreamStateD2Ev, ptr nonnull @_ZZN7openvdb5v11_02io12_GLOBAL__N_113GetSteamStateEvE12sStreamState, ptr nonnull @__dso_handle) #25
  tail call void @__cxa_guard_release(ptr nonnull @_ZGVZN7openvdb5v11_02io12_GLOBAL__N_113GetSteamStateEvE12sStreamState) #25
  br label %_ZN7openvdb5v11_02io12_GLOBAL__N_113GetSteamStateEv.exit8

lpad.i6:                                          ; preds = %init.i5
  %11 = landingpad { ptr, i32 }
          cleanup
  br label %common.resume

_ZN7openvdb5v11_02io12_GLOBAL__N_113GetSteamStateEv.exit8: ; preds = %_ZNSt8ios_base5iwordEi.exit, %init.check.i3, %invoke.cont.i7
  %12 = load i32, ptr getelementptr inbounds (%"struct.openvdb::v11_0::io::(anonymous namespace)::StreamState", ptr @_ZZN7openvdb5v11_02io12_GLOBAL__N_113GetSteamStateEvE12sStreamState, i64 0, i32 3), align 4
  %13 = load i32, ptr %_M_word_size.i, align 8
  %cmp.i10 = icmp ugt i32 %13, %12
  br i1 %cmp.i10, label %cond.true.i15, label %cond.false.i11

cond.true.i15:                                    ; preds = %_ZN7openvdb5v11_02io12_GLOBAL__N_113GetSteamStateEv.exit8
  %_M_word.i16 = getelementptr inbounds i8, ptr %is, i64 200
  %14 = load ptr, ptr %_M_word.i16, align 8
  %idxprom.i17 = sext i32 %12 to i64
  %arrayidx.i18 = getelementptr inbounds %"struct.std::ios_base::_Words", ptr %14, i64 %idxprom.i17
  br label %_ZNSt8ios_base5iwordEi.exit19

cond.false.i11:                                   ; preds = %_ZN7openvdb5v11_02io12_GLOBAL__N_113GetSteamStateEv.exit8
  %call.i12 = tail call noundef nonnull align 8 dereferenceable(16) ptr @_ZNSt8ios_base13_M_grow_wordsEib(ptr noundef nonnull align 8 dereferenceable(216) %is, i32 noundef %12, i1 noundef zeroext true)
  br label %_ZNSt8ios_base5iwordEi.exit19

_ZNSt8ios_base5iwordEi.exit19:                    ; preds = %cond.true.i15, %cond.false.i11
  %cond-lvalue.i13 = phi ptr [ %arrayidx.i18, %cond.true.i15 ], [ %call.i12, %cond.false.i11 ]
  %_M_iword.i14 = getelementptr inbounds i8, ptr %cond-lvalue.i13, i64 8
  %15 = load i64, ptr %_M_iword.i14, align 8
  %retval.sroa.3.0.insert.ext = shl i64 %15, 32
  %retval.sroa.0.0.insert.ext = and i64 %7, 4294967295
  %retval.sroa.0.0.insert.insert = or disjoint i64 %retval.sroa.3.0.insert.ext, %retval.sroa.0.0.insert.ext
  ret i64 %retval.sroa.0.0.insert.insert
}